; Function Attrs: nounwind uwtable
define hidden void @arena_postfork_parent(ptr noundef %tsdn, ptr noundef %arena) local_unnamed_addr #0 {
entry:
  %0 = load i32, ptr @nbins_total, align 4
  %cmp11.not = icmp eq i32 %0, 0
  br i1 %cmp11.not, label %for.end, label %for.body.lr.ph

for.body.lr.ph:                                   ; preds = %entry
  %bins = getelementptr inbounds i8, ptr %arena, i64 78952
  br label %for.body

for.body:                                         ; preds = %for.body.lr.ph, %for.body
  %indvars.iv = phi i64 [ 0, %for.body.lr.ph ], [ %indvars.iv.next, %for.body ]
  %arrayidx = getelementptr inbounds [0 x %struct.bin_s], ptr %bins, i64 0, i64 %indvars.iv
  tail call void @bin_postfork_parent(ptr noundef %tsdn, ptr noundef nonnull %arrayidx) #15
  %indvars.iv.next = add nuw nsw i64 %indvars.iv, 1
  %1 = load i32, ptr @nbins_total, align 4
  %2 = zext i32 %1 to i64
  %cmp = icmp ult i64 %indvars.iv.next, %2
  br i1 %cmp, label %for.body, label %for.end, !llvm.loop !28

for.end:                                          ; preds = %for.body, %entry
  %large_mtx = getelementptr inbounds i8, ptr %arena, i64 10536
  tail call void @malloc_mutex_postfork_parent(ptr noundef %tsdn, ptr noundef nonnull %large_mtx) #15
  %base = getelementptr inbounds i8, ptr %arena, i64 78936
  %3 = load ptr, ptr %base, align 8
  tail call void @base_postfork_parent(ptr noundef %tsdn, ptr noundef %3) #15
  %pa_shard = getelementptr inbounds i8, ptr %arena, i64 10648
  tail call void @pa_shard_postfork_parent(ptr noundef %tsdn, ptr noundef nonnull %pa_shard) #15
  %tcache_ql_mtx = getelementptr inbounds i8, ptr %arena, i64 10408
  tail call void @malloc_mutex_postfork_parent(ptr noundef %tsdn, ptr noundef nonnull %tcache_ql_mtx) #15
  ret void
}